target datalayout = "e-m:e-p270:32:32-p271:32:32-p272:64:64-i64:64-i128:128-f80:128-n8:16:32:64-S128"
target triple = "x86_64-pc-linux-gnu"

@.str.1 = private unnamed_addr constant [9 x i8] c"encode.c\00", align 1
@.str.15 = private unnamed_addr constant [33 x i8] c"invalid input syntax for type %s\00", align 1
@.str.16 = private unnamed_addr constant [6 x i8] c"bytea\00", align 1
@__func__.esc_dec_len = private unnamed_addr constant [12 x i8] c"esc_dec_len\00", align 1

; Function Attrs: nounwind uwtable
define internal i64 @esc_dec_len(ptr noundef %0, i64 noundef %1) #0 {
  %3 = alloca ptr, align 8
  %4 = alloca i64, align 8
  %5 = alloca ptr, align 8
  %6 = alloca i64, align 8
  store ptr %0, ptr %3, align 8
  store i64 %1, ptr %4, align 8
  call void @llvm.lifetime.start.p0(i64 8, ptr %5) #6
  %7 = load ptr, ptr %3, align 8
  %8 = load i64, ptr %4, align 8
  %9 = getelementptr inbounds nuw i8, ptr %7, i64 %8
  store ptr %9, ptr %5, align 8
  call void @llvm.lifetime.start.p0(i64 8, ptr %6) #6
  store i64 0, ptr %6, align 8
  br label %10

10:                                               ; preds = %95, %2
  %11 = load ptr, ptr %3, align 8
  %12 = load ptr, ptr %5, align 8
  %13 = icmp ult ptr %11, %12
  br i1 %13, label %14, label %98

14:                                               ; preds = %10
  %15 = load ptr, ptr %3, align 8
  %16 = getelementptr inbounds i8, ptr %15, i64 0
  %17 = load i8, ptr %16, align 1
  %18 = sext i8 %17 to i32
  %19 = icmp ne i32 %18, 92
  br i1 %19, label %20, label %23

20:                                               ; preds = %14
  %21 = load ptr, ptr %3, align 8
  %22 = getelementptr inbounds nuw i8, ptr %21, i32 1
  store ptr %22, ptr %3, align 8
  br label %95

23:                                               ; preds = %14
  %24 = load ptr, ptr %3, align 8
  %25 = getelementptr inbounds i8, ptr %24, i64 3
  %26 = load ptr, ptr %5, align 8
  %27 = icmp ult ptr %25, %26
  br i1 %27, label %28, label %67

28:                                               ; preds = %23
  %29 = load ptr, ptr %3, align 8
  %30 = getelementptr inbounds i8, ptr %29, i64 1
  %31 = load i8, ptr %30, align 1
  %32 = sext i8 %31 to i32
  %33 = icmp sge i32 %32, 48
  br i1 %33, label %34, label %67

34:                                               ; preds = %28
  %35 = load ptr, ptr %3, align 8
  %36 = getelementptr inbounds i8, ptr %35, i64 1
  %37 = load i8, ptr %36, align 1
  %38 = sext i8 %37 to i32
  %39 = icmp sle i32 %38, 51
  br i1 %39, label %40, label %67

40:                                               ; preds = %34
  %41 = load ptr, ptr %3, align 8
  %42 = getelementptr inbounds i8, ptr %41, i64 2
  %43 = load i8, ptr %42, align 1
  %44 = sext i8 %43 to i32
  %45 = icmp sge i32 %44, 48
  br i1 %45, label %46, label %67

46:                                               ; preds = %40
  %47 = load ptr, ptr %3, align 8
  %48 = getelementptr inbounds i8, ptr %47, i64 2
  %49 = load i8, ptr %48, align 1
  %50 = sext i8 %49 to i32
  %51 = icmp sle i32 %50, 55
  br i1 %51, label %52, label %67

52:                                               ; preds = %46
  %53 = load ptr, ptr %3, align 8
  %54 = getelementptr inbounds i8, ptr %53, i64 3
  %55 = load i8, ptr %54, align 1
  %56 = sext i8 %55 to i32
  %57 = icmp sge i32 %56, 48
  br i1 %57, label %58, label %67

58:                                               ; preds = %52
  %59 = load ptr, ptr %3, align 8
  %60 = getelementptr inbounds i8, ptr %59, i64 3
  %61 = load i8, ptr %60, align 1
  %62 = sext i8 %61 to i32
  %63 = icmp sle i32 %62, 55
  br i1 %63, label %64, label %67

64:                                               ; preds = %58
  %65 = load ptr, ptr %3, align 8
  %66 = getelementptr inbounds i8, ptr %65, i64 4
  store ptr %66, ptr %3, align 8
  br label %94

67:                                               ; preds = %58, %52, %46, %40, %34, %28, %23
  %68 = load ptr, ptr %3, align 8
  %69 = getelementptr inbounds i8, ptr %68, i64 1
  %70 = load ptr, ptr %5, align 8
  %71 = icmp ult ptr %69, %70
  br i1 %71, label %72, label %81

72:                                               ; preds = %67
  %73 = load ptr, ptr %3, align 8
  %74 = getelementptr inbounds i8, ptr %73, i64 1
  %75 = load i8, ptr %74, align 1
  %76 = sext i8 %75 to i32
  %77 = icmp eq i32 %76, 92
  br i1 %77, label %78, label %81

78:                                               ; preds = %72
  %79 = load ptr, ptr %3, align 8
  %80 = getelementptr inbounds i8, ptr %79, i64 2
  store ptr %80, ptr %3, align 8
  br label %93

81:                                               ; preds = %72, %67
  br label %82

82:                                               ; preds = %81
  br i1 true, label %83, label %85

83:                                               ; preds = %82
  %84 = call zeroext i1 @errstart_cold(i32 noundef 21, ptr noundef null) #7
  br i1 %84, label %87, label %90

85:                                               ; preds = %82
  %86 = call zeroext i1 @errstart(i32 noundef 21, ptr noundef null)
  br i1 %86, label %87, label %90

87:                                               ; preds = %85, %83
  %88 = call i32 @errcode(i32 noundef 33685634)
  %89 = call i32 (ptr, ...) @errmsg(ptr noundef @.str.15, ptr noundef @.str.16)
  call void @errfinish(ptr noundef @.str.1, i32 noundef 578, ptr noundef @__func__.esc_dec_len)
  br label %90

90:                                               ; preds = %87, %85, %83
  unreachable

91:                                               ; No predecessors!
  br label %92

92:                                               ; preds = %91
  br label %93

93:                                               ; preds = %92, %78
  br label %94

94:                                               ; preds = %93, %64
  br label %95

95:                                               ; preds = %94, %20
  %96 = load i64, ptr %6, align 8
  %97 = add i64 %96, 1
  store i64 %97, ptr %6, align 8
  br label %10, !llvm.loop !11

98:                                               ; preds = %10
  %99 = load i64, ptr %6, align 8
  call void @llvm.lifetime.end.p0(i64 8, ptr %6) #6
  call void @llvm.lifetime.end.p0(i64 8, ptr %5) #6
  ret i64 %99
}