; Function Attrs: nounwind uwtable
define internal i64 @esc_dec_len(ptr noundef readonly captures(address) %0, i64 noundef %1) #0 {
  %3 = getelementptr inbounds nuw i8, ptr %0, i64 %1
  %.not32 = icmp eq i64 %1, 0
  br i1 %.not32, label %._crit_edge, label %.lr.ph

.lr.ph:                                           ; preds = %2, %29
  %.031 = phi i64 [ %31, %29 ], [ 0, %2 ]
  %.02030 = phi ptr [ %30, %29 ], [ %0, %2 ]
  %4 = load i8, ptr %.02030, align 1
  %.not = icmp eq i8 %4, 92
  br i1 %.not, label %5, label %29

5:                                                ; preds = %.lr.ph
  %6 = getelementptr inbounds nuw i8, ptr %.02030, i64 3
  %7 = icmp ult ptr %6, %3
  br i1 %7, label %8, label %19

8:                                                ; preds = %5
  %9 = getelementptr inbounds nuw i8, ptr %.02030, i64 1
  %10 = load i8, ptr %9, align 1
  %11 = and i8 %10, -4
  %or.cond = icmp eq i8 %11, 48
  br i1 %or.cond, label %12, label %19

12:                                               ; preds = %8
  %13 = getelementptr inbounds nuw i8, ptr %.02030, i64 2
  %14 = load i8, ptr %13, align 1
  %15 = and i8 %14, -8
  %or.cond27 = icmp eq i8 %15, 48
  br i1 %or.cond27, label %16, label %19

16:                                               ; preds = %12
  %17 = load i8, ptr %6, align 1
  %18 = and i8 %17, -8
  %or.cond28 = icmp eq i8 %18, 48
  br i1 %or.cond28, label %29, label %19

19:                                               ; preds = %16, %12, %8, %5
  %20 = getelementptr inbounds nuw i8, ptr %.02030, i64 1
  %21 = icmp ult ptr %20, %3
  br i1 %21, label %22, label %25

22:                                               ; preds = %19
  %23 = load i8, ptr %20, align 1
  %24 = icmp eq i8 %23, 92
  br i1 %24, label %29, label %25

25:                                               ; preds = %22, %19
  %26 = tail call zeroext i1 @errstart_cold(i32 noundef 21, ptr noundef null) #8
  tail call void @llvm.assume(i1 %26)
  %27 = tail call i32 @errcode(i32 noundef 33685634) #7
  %28 = tail call i32 (ptr, ...) @errmsg(ptr noundef nonnull @.str.15, ptr noundef nonnull @.str.16) #7
  tail call void @errfinish(ptr noundef nonnull @.str.1, i32 noundef 578, ptr noundef nonnull @__func__.esc_dec_len) #7
  unreachable

29:                                               ; preds = %22, %16, %.lr.ph
  %.sink = phi i64 [ 1, %.lr.ph ], [ 4, %16 ], [ 2, %22 ]
  %30 = getelementptr inbounds nuw i8, ptr %.02030, i64 %.sink
  %31 = add i64 %.031, 1
  %32 = icmp ult ptr %30, %3
  br i1 %32, label %.lr.ph, label %._crit_edge, !llvm.loop !11

._crit_edge:                                      ; preds = %29, %2
  %.0.lcssa = phi i64 [ 0, %2 ], [ %31, %29 ]
  ret i64 %.0.lcssa
}